target datalayout = "e-m:e-p270:32:32-p271:32:32-p272:64:64-i64:64-i128:128-f80:128-n8:16:32:64-S128"
target triple = "x86_64-pc-linux-gnu"

%struct.strbuf = type { i64, i64, ptr }
%struct.active_request_slot = type { ptr, i32, i32, i64, ptr, ptr, ptr, ptr, ptr }
%struct.fill_chain = type { ptr, ptr, ptr }
%struct.object_id = type { [32 x i8], i32 }
%struct.http_object_request = type { ptr, %struct.strbuf, i32, i32, [256 x i8], i64, %struct.object_id, %struct.object_id, %union.git_hash_ctx, %struct.git_zstream, i32, i32, ptr, ptr }
%union.git_hash_ctx = type { %struct.SHA1_CTX }
%struct.SHA1_CTX = type { i64, [5 x i32], [64 x i8], i32, i32, i32, i32, i32, ptr, [5 x i32], [5 x i32], [80 x i32], [80 x i32], [80 x [5 x i32]] }
%struct.git_zstream = type { %struct.z_stream_s, i64, i64, i64, i64, ptr, ptr }
%struct.z_stream_s = type { ptr, i32, i64, ptr, i32, i64, ptr, ptr, ptr, ptr, ptr, i32, i64, i64 }

@max_requests = internal global i32 -1, align 4
@curlm = internal global ptr null, align 8
@curl_session_count = internal global i32 0, align 4
@active_queue_head = internal global ptr null, align 8
@active_requests = dso_local global i32 0, align 4
@fill_cfg = internal global ptr null, align 8
@min_curl_sessions = internal global i32 1, align 4

; Function Attrs: nounwind uwtable
define dso_local void @fill_active_slots() #0 {
  %1 = alloca ptr, align 8
  %2 = alloca ptr, align 8
  %3 = alloca i32, align 4
  call void @llvm.lifetime.start.p0(i64 8, ptr %1) #11
  %4 = load ptr, ptr @active_queue_head, align 8, !tbaa !88
  store ptr %4, ptr %1, align 8, !tbaa !88
  br label %5

5:                                                ; preds = %36, %0
  %6 = load i32, ptr @active_requests, align 4, !tbaa !19
  %7 = load i32, ptr @max_requests, align 4, !tbaa !19
  %8 = icmp slt i32 %6, %7
  br i1 %8, label %9, label %37

9:                                                ; preds = %5
  call void @llvm.lifetime.start.p0(i64 8, ptr %2) #11
  %10 = load ptr, ptr @fill_cfg, align 8, !tbaa !115
  store ptr %10, ptr %2, align 8, !tbaa !115
  br label %11

11:                                               ; preds = %25, %9
  %12 = load ptr, ptr %2, align 8, !tbaa !115
  %13 = icmp ne ptr %12, null
  br i1 %13, label %14, label %29

14:                                               ; preds = %11
  %15 = load ptr, ptr %2, align 8, !tbaa !115
  %16 = getelementptr inbounds nuw %struct.fill_chain, ptr %15, i32 0, i32 1
  %17 = load ptr, ptr %16, align 8, !tbaa !121
  %18 = load ptr, ptr %2, align 8, !tbaa !115
  %19 = getelementptr inbounds nuw %struct.fill_chain, ptr %18, i32 0, i32 0
  %20 = load ptr, ptr %19, align 8, !tbaa !119
  %21 = call i32 %17(ptr noundef %20)
  %22 = icmp ne i32 %21, 0
  br i1 %22, label %23, label %24

23:                                               ; preds = %14
  br label %29

24:                                               ; preds = %14
  br label %25

25:                                               ; preds = %24
  %26 = load ptr, ptr %2, align 8, !tbaa !115
  %27 = getelementptr inbounds nuw %struct.fill_chain, ptr %26, i32 0, i32 2
  %28 = load ptr, ptr %27, align 8, !tbaa !122
  store ptr %28, ptr %2, align 8, !tbaa !115
  br label %11, !llvm.loop !124

29:                                               ; preds = %23, %11
  %30 = load ptr, ptr %2, align 8, !tbaa !115
  %31 = icmp ne ptr %30, null
  br i1 %31, label %33, label %32

32:                                               ; preds = %29
  store i32 3, ptr %3, align 4
  br label %34

33:                                               ; preds = %29
  store i32 0, ptr %3, align 4
  br label %34

34:                                               ; preds = %33, %32
  call void @llvm.lifetime.end.p0(i64 8, ptr %2) #11
  %35 = load i32, ptr %3, align 4
  switch i32 %35, label %68 [
    i32 0, label %36
    i32 3, label %37
  ]

36:                                               ; preds = %34
  br label %5, !llvm.loop !125

37:                                               ; preds = %34, %5
  br label %38

38:                                               ; preds = %63, %37
  %39 = load ptr, ptr %1, align 8, !tbaa !88
  %40 = icmp ne ptr %39, null
  br i1 %40, label %41, label %67

41:                                               ; preds = %38
  %42 = load ptr, ptr %1, align 8, !tbaa !88
  %43 = getelementptr inbounds nuw %struct.active_request_slot, ptr %42, i32 0, i32 1
  %44 = load i32, ptr %43, align 8, !tbaa !97
  %45 = icmp ne i32 %44, 0
  br i1 %45, label %63, label %46

46:                                               ; preds = %41
  %47 = load ptr, ptr %1, align 8, !tbaa !88
  %48 = getelementptr inbounds nuw %struct.active_request_slot, ptr %47, i32 0, i32 0
  %49 = load ptr, ptr %48, align 8, !tbaa !94
  %50 = icmp ne ptr %49, null
  br i1 %50, label %51, label %63

51:                                               ; preds = %46
  %52 = load i32, ptr @curl_session_count, align 4, !tbaa !19
  %53 = load i32, ptr @min_curl_sessions, align 4, !tbaa !19
  %54 = icmp sgt i32 %52, %53
  br i1 %54, label %55, label %63

55:                                               ; preds = %51
  %56 = load ptr, ptr %1, align 8, !tbaa !88
  %57 = getelementptr inbounds nuw %struct.active_request_slot, ptr %56, i32 0, i32 0
  %58 = load ptr, ptr %57, align 8, !tbaa !94
  call void @curl_easy_cleanup(ptr noundef %58)
  %59 = load ptr, ptr %1, align 8, !tbaa !88
  %60 = getelementptr inbounds nuw %struct.active_request_slot, ptr %59, i32 0, i32 0
  store ptr null, ptr %60, align 8, !tbaa !94
  %61 = load i32, ptr @curl_session_count, align 4, !tbaa !19
  %62 = add nsw i32 %61, -1
  store i32 %62, ptr @curl_session_count, align 4, !tbaa !19
  br label %63

63:                                               ; preds = %55, %51, %46, %41
  %64 = load ptr, ptr %1, align 8, !tbaa !88
  %65 = getelementptr inbounds nuw %struct.active_request_slot, ptr %64, i32 0, i32 8
  %66 = load ptr, ptr %65, align 8, !tbaa !90
  store ptr %66, ptr %1, align 8, !tbaa !88
  br label %38, !llvm.loop !126

67:                                               ; preds = %38
  call void @llvm.lifetime.end.p0(i64 8, ptr %1) #11
  ret void

68:                                               ; preds = %34
  unreachable
}

; Function Attrs: nounwind uwtable
define internal void @xmulti_remove_handle(ptr noundef %0) #0 {
  %2 = alloca ptr, align 8
  store ptr %0, ptr %2, align 8, !tbaa !88
  %3 = load ptr, ptr @curlm, align 8, !tbaa !11
  %4 = load ptr, ptr %2, align 8, !tbaa !88
  %5 = getelementptr inbounds nuw %struct.active_request_slot, ptr %4, i32 0, i32 0
  %6 = load ptr, ptr %5, align 8, !tbaa !94
  %7 = call i32 @curl_multi_remove_handle(ptr noundef %3, ptr noundef %6)
  ret void
}

; Function Attrs: nounwind uwtable
define internal void @closedown_active_slot(ptr noundef %0) #0 {
  %2 = alloca ptr, align 8
  store ptr %0, ptr %2, align 8, !tbaa !88
  %3 = load i32, ptr @active_requests, align 4, !tbaa !19
  %4 = add nsw i32 %3, -1
  store i32 %4, ptr @active_requests, align 4, !tbaa !19
  %5 = load ptr, ptr %2, align 8, !tbaa !88
  %6 = getelementptr inbounds nuw %struct.active_request_slot, ptr %5, i32 0, i32 1
  store i32 0, ptr %6, align 8, !tbaa !97
  ret void
}

; Function Attrs: nounwind uwtable
define internal void @release_active_slot(ptr noundef %0) #0 {
  %2 = alloca ptr, align 8
  store ptr %0, ptr %2, align 8, !tbaa !88
  %3 = load ptr, ptr %2, align 8, !tbaa !88
  call void @closedown_active_slot(ptr noundef %3)
  %4 = load ptr, ptr %2, align 8, !tbaa !88
  %5 = getelementptr inbounds nuw %struct.active_request_slot, ptr %4, i32 0, i32 0
  %6 = load ptr, ptr %5, align 8, !tbaa !94
  %7 = icmp ne ptr %6, null
  br i1 %7, label %8, label %22

8:                                                ; preds = %1
  %9 = load ptr, ptr %2, align 8, !tbaa !88
  call void @xmulti_remove_handle(ptr noundef %9)
  %10 = load i32, ptr @curl_session_count, align 4, !tbaa !19
  %11 = load i32, ptr @min_curl_sessions, align 4, !tbaa !19
  %12 = icmp sgt i32 %10, %11
  br i1 %12, label %13, label %21

13:                                               ; preds = %8
  %14 = load ptr, ptr %2, align 8, !tbaa !88
  %15 = getelementptr inbounds nuw %struct.active_request_slot, ptr %14, i32 0, i32 0
  %16 = load ptr, ptr %15, align 8, !tbaa !94
  call void @curl_easy_cleanup(ptr noundef %16)
  %17 = load ptr, ptr %2, align 8, !tbaa !88
  %18 = getelementptr inbounds nuw %struct.active_request_slot, ptr %17, i32 0, i32 0
  store ptr null, ptr %18, align 8, !tbaa !94
  %19 = load i32, ptr @curl_session_count, align 4, !tbaa !19
  %20 = add nsw i32 %19, -1
  store i32 %20, ptr @curl_session_count, align 4, !tbaa !19
  br label %21

21:                                               ; preds = %13, %8
  br label %22

22:                                               ; preds = %21, %1
  call void @fill_active_slots()
  ret void
}

; Function Attrs: nounwind uwtable
define dso_local void @release_http_object_request(ptr noundef %0) #0 {
  %2 = alloca ptr, align 8
  %3 = alloca ptr, align 8
  store ptr %0, ptr %2, align 8, !tbaa !232
  call void @llvm.lifetime.start.p0(i64 8, ptr %3) #11
  %4 = load ptr, ptr %2, align 8, !tbaa !232
  %5 = load ptr, ptr %4, align 8, !tbaa !201
  store ptr %5, ptr %3, align 8, !tbaa !201
  %6 = load ptr, ptr %3, align 8, !tbaa !201
  %7 = getelementptr inbounds nuw %struct.http_object_request, ptr %6, i32 0, i32 2
  %8 = load i32, ptr %7, align 8, !tbaa !203
  %9 = icmp ne i32 %8, -1
  br i1 %9, label %10, label %17

10:                                               ; preds = %1
  %11 = load ptr, ptr %3, align 8, !tbaa !201
  %12 = getelementptr inbounds nuw %struct.http_object_request, ptr %11, i32 0, i32 2
  %13 = load i32, ptr %12, align 8, !tbaa !203
  %14 = call i32 @close(i32 noundef %13)
  %15 = load ptr, ptr %3, align 8, !tbaa !201
  %16 = getelementptr inbounds nuw %struct.http_object_request, ptr %15, i32 0, i32 2
  store i32 -1, ptr %16, align 8, !tbaa !203
  br label %17

17:                                               ; preds = %10, %1
  br label %18

18:                                               ; preds = %17
  %19 = load ptr, ptr %3, align 8, !tbaa !201
  %20 = getelementptr inbounds nuw %struct.http_object_request, ptr %19, i32 0, i32 0
  %21 = load ptr, ptr %20, align 8, !tbaa !211
  call void @free(ptr noundef %21) #11
  %22 = load ptr, ptr %3, align 8, !tbaa !201
  %23 = getelementptr inbounds nuw %struct.http_object_request, ptr %22, i32 0, i32 0
  store ptr null, ptr %23, align 8, !tbaa !211
  br label %24

24:                                               ; preds = %18
  br label %25

25:                                               ; preds = %24
  %26 = load ptr, ptr %3, align 8, !tbaa !201
  %27 = getelementptr inbounds nuw %struct.http_object_request, ptr %26, i32 0, i32 12
  %28 = load ptr, ptr %27, align 8, !tbaa !213
  %29 = icmp ne ptr %28, null
  br i1 %29, label %30, label %44

30:                                               ; preds = %25
  %31 = load ptr, ptr %3, align 8, !tbaa !201
  %32 = getelementptr inbounds nuw %struct.http_object_request, ptr %31, i32 0, i32 12
  %33 = load ptr, ptr %32, align 8, !tbaa !213
  %34 = getelementptr inbounds nuw %struct.active_request_slot, ptr %33, i32 0, i32 7
  store ptr null, ptr %34, align 8, !tbaa !103
  %35 = load ptr, ptr %3, align 8, !tbaa !201
  %36 = getelementptr inbounds nuw %struct.http_object_request, ptr %35, i32 0, i32 12
  %37 = load ptr, ptr %36, align 8, !tbaa !213
  %38 = getelementptr inbounds nuw %struct.active_request_slot, ptr %37, i32 0, i32 6
  store ptr null, ptr %38, align 8, !tbaa !102
  %39 = load ptr, ptr %3, align 8, !tbaa !201
  %40 = getelementptr inbounds nuw %struct.http_object_request, ptr %39, i32 0, i32 12
  %41 = load ptr, ptr %40, align 8, !tbaa !213
  call void @release_active_slot(ptr noundef %41)
  %42 = load ptr, ptr %3, align 8, !tbaa !201
  %43 = getelementptr inbounds nuw %struct.http_object_request, ptr %42, i32 0, i32 12
  store ptr null, ptr %43, align 8, !tbaa !213
  br label %44

44:                                               ; preds = %30, %25
  %45 = load ptr, ptr %3, align 8, !tbaa !201
  %46 = getelementptr inbounds nuw %struct.http_object_request, ptr %45, i32 0, i32 13
  %47 = load ptr, ptr %46, align 8, !tbaa !214
  call void @curl_slist_free_all(ptr noundef %47)
  %48 = load ptr, ptr %3, align 8, !tbaa !201
  %49 = getelementptr inbounds nuw %struct.http_object_request, ptr %48, i32 0, i32 1
  call void @strbuf_release(ptr noundef %49)
  %50 = load ptr, ptr %3, align 8, !tbaa !201
  %51 = getelementptr inbounds nuw %struct.http_object_request, ptr %50, i32 0, i32 9
  call void @git_inflate_end(ptr noundef %51)
  %52 = load ptr, ptr %3, align 8, !tbaa !201
  call void @free(ptr noundef %52) #11
  %53 = load ptr, ptr %2, align 8, !tbaa !232
  store ptr null, ptr %53, align 8, !tbaa !201
  call void @llvm.lifetime.end.p0(i64 8, ptr %3) #11
  ret void
}