; Function Attrs: nounwind uwtable
define dso_local void @release_http_object_request(ptr noundef captures(none) %0) local_unnamed_addr #3 {
  %2 = load ptr, ptr %0, align 8, !tbaa !201
  %3 = getelementptr inbounds nuw i8, ptr %2, i64 32
  %4 = load i32, ptr %3, align 8, !tbaa !178
  %.not = icmp eq i32 %4, -1
  br i1 %.not, label %7, label %5

5:                                                ; preds = %1
  %6 = tail call i32 @close(i32 noundef %4) #22
  store i32 -1, ptr %3, align 8, !tbaa !178
  br label %7

7:                                                ; preds = %1, %5
  %8 = load ptr, ptr %2, align 8, !tbaa !185
  tail call void @free(ptr noundef %8) #22
  store ptr null, ptr %2, align 8, !tbaa !185
  %9 = getelementptr inbounds nuw i8, ptr %2, i64 2944
  %10 = load ptr, ptr %9, align 8, !tbaa !187
  %.not17 = icmp eq ptr %10, null
  br i1 %.not17, label %55, label %11

11:                                               ; preds = %7
  %12 = getelementptr inbounds nuw i8, ptr %10, i64 40
  tail call void @llvm.memset.p0.i64(ptr noundef nonnull align 8 dereferenceable(16) %12, i8 0, i64 16, i1 false)
  %13 = load i32, ptr @active_requests, align 4, !tbaa !38
  %14 = add nsw i32 %13, -1
  store i32 %14, ptr @active_requests, align 4, !tbaa !38
  %15 = getelementptr inbounds nuw i8, ptr %10, i64 8
  store i32 0, ptr %15, align 8, !tbaa !90
  %16 = load ptr, ptr %10, align 8, !tbaa !87
  %.not.i = icmp eq ptr %16, null
  br i1 %.not.i, label %27, label %17

17:                                               ; preds = %11
  %18 = load ptr, ptr @curlm, align 8, !tbaa !62
  %19 = tail call i32 @curl_multi_remove_handle(ptr noundef %18, ptr noundef nonnull %16) #22
  %20 = load i32, ptr @curl_session_count, align 4, !tbaa !38
  %21 = load i32, ptr @min_curl_sessions, align 4, !tbaa !38
  %22 = icmp sgt i32 %20, %21
  br i1 %22, label %23, label %27

23:                                               ; preds = %17
  %24 = load ptr, ptr %10, align 8, !tbaa !87
  tail call void @curl_easy_cleanup(ptr noundef %24) #22
  store ptr null, ptr %10, align 8, !tbaa !87
  %25 = load i32, ptr @curl_session_count, align 4, !tbaa !38
  %26 = add nsw i32 %25, -1
  store i32 %26, ptr @curl_session_count, align 4, !tbaa !38
  br label %27

27:                                               ; preds = %23, %17, %11
  %28 = load ptr, ptr @active_queue_head, align 8, !tbaa !81
  %29 = load i32, ptr @active_requests, align 4, !tbaa !38
  %30 = load i32, ptr @max_requests, align 4, !tbaa !38
  %31 = icmp slt i32 %29, %30
  br i1 %31, label %.preheader.i.i, label %.critedge.i.i

.loopexit.i.i:                                    ; preds = %.lr.ph.i.i
  %32 = load i32, ptr @active_requests, align 4, !tbaa !38
  %33 = load i32, ptr @max_requests, align 4, !tbaa !38
  %34 = icmp slt i32 %32, %33
  br i1 %34, label %.preheader.i.i, label %.critedge.i.i

.preheader.i.i:                                   ; preds = %27, %.loopexit.i.i
  %.01119.i.i = load ptr, ptr @fill_cfg, align 8, !tbaa !114
  %.not20.i.i = icmp eq ptr %.01119.i.i, null
  br i1 %.not20.i.i, label %.critedge.i.i, label %.lr.ph.i.i

35:                                               ; preds = %.lr.ph.i.i
  %36 = getelementptr inbounds nuw i8, ptr %.01121.i.i, i64 16
  %.011.i.i = load ptr, ptr %36, align 8, !tbaa !114
  %.not.i.i = icmp eq ptr %.011.i.i, null
  br i1 %.not.i.i, label %.critedge.i.i, label %.lr.ph.i.i, !llvm.loop !116

.lr.ph.i.i:                                       ; preds = %.preheader.i.i, %35
  %.01121.i.i = phi ptr [ %.011.i.i, %35 ], [ %.01119.i.i, %.preheader.i.i ]
  %37 = getelementptr inbounds nuw i8, ptr %.01121.i.i, i64 8
  %38 = load ptr, ptr %37, align 8, !tbaa !112
  %39 = load ptr, ptr %.01121.i.i, align 8, !tbaa !109
  %40 = tail call i32 %38(ptr noundef %39) #22
  %.not14.i.i = icmp eq i32 %40, 0
  br i1 %.not14.i.i, label %35, label %.loopexit.i.i

.critedge.i.i:                                    ; preds = %.preheader.i.i, %.loopexit.i.i, %35, %27
  %.not1522.i.i = icmp eq ptr %28, null
  br i1 %.not1522.i.i, label %release_active_slot.exit, label %.lr.ph24.i.i

.lr.ph24.i.i:                                     ; preds = %.critedge.i.i, %52
  %.01223.i.i = phi ptr [ %54, %52 ], [ %28, %.critedge.i.i ]
  %41 = getelementptr inbounds nuw i8, ptr %.01223.i.i, i64 8
  %42 = load i32, ptr %41, align 8, !tbaa !90
  %.not16.i.i = icmp eq i32 %42, 0
  br i1 %.not16.i.i, label %43, label %52

43:                                               ; preds = %.lr.ph24.i.i
  %44 = load ptr, ptr %.01223.i.i, align 8, !tbaa !87
  %.not17.i.i = icmp eq ptr %44, null
  br i1 %.not17.i.i, label %52, label %45

45:                                               ; preds = %43
  %46 = load i32, ptr @curl_session_count, align 4, !tbaa !38
  %47 = load i32, ptr @min_curl_sessions, align 4, !tbaa !38
  %48 = icmp sgt i32 %46, %47
  br i1 %48, label %49, label %52

49:                                               ; preds = %45
  tail call void @curl_easy_cleanup(ptr noundef nonnull %44) #22
  store ptr null, ptr %.01223.i.i, align 8, !tbaa !87
  %50 = load i32, ptr @curl_session_count, align 4, !tbaa !38
  %51 = add nsw i32 %50, -1
  store i32 %51, ptr @curl_session_count, align 4, !tbaa !38
  br label %52

52:                                               ; preds = %49, %45, %43, %.lr.ph24.i.i
  %53 = getelementptr inbounds nuw i8, ptr %.01223.i.i, i64 56
  %54 = load ptr, ptr %53, align 8, !tbaa !83
  %.not15.i.i = icmp eq ptr %54, null
  br i1 %.not15.i.i, label %release_active_slot.exit, label %.lr.ph24.i.i, !llvm.loop !117

release_active_slot.exit:                         ; preds = %52, %.critedge.i.i
  store ptr null, ptr %9, align 8, !tbaa !187
  br label %55

55:                                               ; preds = %release_active_slot.exit, %7
  %56 = getelementptr inbounds nuw i8, ptr %2, i64 2952
  %57 = load ptr, ptr %56, align 8, !tbaa !188
  tail call void @curl_slist_free_all(ptr noundef %57) #22
  %58 = getelementptr inbounds nuw i8, ptr %2, i64 8
  tail call void @strbuf_release(ptr noundef nonnull %58) #22
  %59 = getelementptr inbounds nuw i8, ptr %2, i64 2776
  tail call void @git_inflate_end(ptr noundef nonnull %59) #22
  tail call void @free(ptr noundef nonnull %2) #22
  store ptr null, ptr %0, align 8, !tbaa !201
  ret void
}